Certificate:
    Data:
        Version: 3 (0x2)
        Serial Number:
            32:c4:99:be:78:f8:d6:2f:3e:2a:55:b3:73:05:6c:f9:f5:90:1b:35
        Signature Algorithm: sha256WithRSAEncryption
        Issuer: C=ES, ST=Barcelona, O=Network Security Org, OU=Certification, CN=NS Root CA
        Validity
            Not Before: Mar 17 21:21:48 2025 GMT
            Not After : Mar 17 21:21:48 2026 GMT
        Subject: C=ES, ST=Barcelona, O=Network Security Org, OU=Web Servers, CN=NSAA TLS Web Server
        Subject Public Key Info:
            Public Key Algorithm: rsaEncryption
                Public-Key: (2048 bit)
                Modulus:
                    00:b3:91:41:c6:04:bc:7d:01:d3:9c:4d:b6:f6:04:
                    a9:8f:ca:2c:44:34:7d:34:6b:b3:a4:63:9e:ec:b4:
                    e2:a7:42:b7:3c:cf:72:db:b3:68:16:f4:5e:59:b6:
                    2a:94:5b:2d:33:04:38:e8:06:b5:68:b4:5a:75:4b:
                    84:76:72:d7:32:21:50:4f:b1:73:04:d0:6f:65:78:
                    43:c2:e1:c0:e4:8b:d3:b7:2d:22:ad:d4:2b:2e:58:
                    1d:94:f9:59:07:8b:30:6c:19:83:ed:be:89:39:df:
                    d5:11:54:94:12:21:80:64:bf:5c:f9:8a:1c:16:ec:
                    63:55:4f:ea:8f:b7:d0:01:5f:39:22:40:86:6a:da:
                    1e:56:5c:f7:1a:45:c5:0d:fa:2f:e8:88:ce:6e:1d:
                    bb:65:2d:20:b4:6f:cf:96:0c:64:9c:8b:4c:6c:9b:
                    75:6a:51:23:6b:77:47:cf:64:27:5e:54:09:99:aa:
                    be:83:f8:9b:18:4e:49:0a:48:da:a2:14:eb:cf:52:
                    2f:87:84:df:7f:55:1e:96:f3:41:f4:8b:f3:d4:d2:
                    b9:46:9b:8f:c7:d2:4d:c6:bc:cf:39:97:9d:b7:16:
                    2f:d8:40:e2:40:20:8c:4d:42:96:d4:20:69:bd:b4:
                    af:da:fd:42:6d:dd:9d:98:44:a6:83:c6:5a:26:c6:
                    95:d5
                Exponent: 65537 (0x10001)
        X509v3 extensions:
            X509v3 Basic Constraints: 
                CA:FALSE
            X509v3 Subject Key Identifier: 
                E7:18:5C:69:D2:D7:34:1A:10:62:FE:D6:2B:F2:52:A1:08:25:B5:E4
            X509v3 Authority Key Identifier: 
                65:47:E1:F1:02:9D:85:EA:8C:9A:77:FD:1B:D7:D6:A7:B6:08:1D:D5
            Authority Information Access: 
                OCSP - URI:http://10.0.2.15
            X509v3 Key Usage: critical
                Digital Signature, Non Repudiation, Key Encipherment, Key Agreement
            X509v3 Extended Key Usage: critical
                TLS Web Server Authentication
            X509v3 Subject Alternative Name: 
                IP Address:10.0.2.15
    Signature Algorithm: sha256WithRSAEncryption
    Signature Value:
        a7:0b:4c:31:92:6c:4d:d5:ce:9f:d1:ae:41:22:db:86:ed:92:
        5f:c4:84:f5:1c:1b:02:15:dd:40:a0:be:e7:e6:51:03:79:3c:
        34:67:03:a0:d2:09:36:5f:d0:87:86:0c:71:56:a8:6f:00:28:
        55:f9:47:eb:9d:fb:f2:0a:1e:30:d6:6f:4e:41:a6:1f:0b:d2:
        ca:8c:cc:82:93:f5:8c:06:82:0e:dc:3d:9a:a6:64:06:2c:de:
        1b:37:07:26:eb:5b:d7:28:8d:ad:7b:92:38:e0:87:e3:dd:6a:
        70:74:d7:c9:45:23:e4:e3:aa:04:b7:a8:4b:4f:21:e7:ee:09:
        94:25:7d:5e:0d:12:4f:84:d8:fd:3d:b8:01:a7:b8:5b:f4:ea:
        83:0c:39:84:a1:5f:42:6d:69:eb:49:17:78:4a:53:c0:91:d2:
        0c:87:1a:67:85:5c:fc:45:94:9d:80:0a:cf:0e:13:88:9a:8a:
        be:c1:e4:dc:bb:a6:e0:20:8e:be:45:cf:54:d4:8e:07:7e:27:
        6b:d6:54:5e:f9:95:2c:e5:df:62:a4:a2:27:e8:be:6f:af:f0:
        a8:c9:1c:00:3a:7a:00:c1:c2:d0:05:15:ef:ab:08:1f:bb:da:
        66:6c:9c:6f:f6:a9:0c:4e:25:4e:3e:a3:b2:59:d9:07:c0:3b:
        a7:64:45:35:d9:27:74:db:04:a7:7c:aa:82:e0:ba:0b:d5:81:
        4c:f0:bf:a7:40:30:16:e5:61:ac:c4:f1:77:a8:72:bd:ea:ce:
        0e:0c:70:85:ba:ae:12:9c:f1:2a:68:2d:ea:f9:31:54:d4:4b:
        25:62:8d:02:23:2e:81:ef:d5:da:9d:bd:8e:35:65:2e:18:f3:
        ce:3d:23:a8:f4:d5:fb:2b:cc:f5:1b:ad:c8:14:12:70:71:0a:
        ce:ed:0b:40:58:09:d4:c8:40:14:97:3e:13:fe:be:bc:b6:e7:
        46:bd:09:43:9d:aa:3c:4b:82:32:5a:a2:31:d6:c5:ed:ba:fb:
        8f:5f:d4:6a:8b:b7:41:92:20:04:f6:8b:29:4f:22:8b:64:93:
        e2:88:cb:ad:ea:6b:e1:ad:de:5a:80:f0:e3:65:06:bd:d8:e1:
        7d:9d:c8:89:2a:5b:63:52:67:d0:86:02:65:06:a7:a5:12:3b:
        4a:d4:62:94:31:c3:44:94:a3:d5:e5:a1:9d:64:19:4f:95:6b:
        5b:0f:b1:a8:dd:6e:60:78:47:64:d4:d7:80:9d:2f:8a:cf:00:
        02:2c:ce:6c:5d:be:15:87:fb:0c:38:84:9d:60:d8:ce:2d:79:
        b2:b9:7c:c1:93:9f:bd:fa:3b:ce:61:ad:a3:63:42:0b:6a:dd:
        aa:12:5d:27:8c:56:07:96
-----BEGIN CERTIFICATE-----
MIIFJTCCAw2gAwIBAgIUMsSZvnj41i8+KlWzcwVs+fWQGzUwDQYJKoZIhvcNAQEL
BQAwbTELMAkGA1UEBhMCRVMxEjAQBgNVBAgMCUJhcmNlbG9uYTEdMBsGA1UECgwU
TmV0d29yayBTZWN1cml0eSBPcmcxFjAUBgNVBAsMDUNlcnRpZmljYXRpb24xEzAR
BgNVBAMMCk5TIFJvb3QgQ0EwHhcNMjUwMzE3MjEyMTQ4WhcNMjYwMzE3MjEyMTQ4
WjB0MQswCQYDVQQGEwJFUzESMBAGA1UECAwJQmFyY2Vsb25hMR0wGwYDVQQKDBRO
ZXR3b3JrIFNlY3VyaXR5IE9yZzEUMBIGA1UECwwLV2ViIFNlcnZlcnMxHDAaBgNV
BAMME05TQUEgVExTIFdlYiBTZXJ2ZXIwggEiMA0GCSqGSIb3DQEBAQUAA4IBDwAw
ggEKAoIBAQCzkUHGBLx9AdOcTbb2BKmPyixENH00a7OkY57stOKnQrc8z3Lbs2gW
9F5ZtiqUWy0zBDjoBrVotFp1S4R2ctcyIVBPsXME0G9leEPC4cDki9O3LSKt1Csu
WB2U+VkHizBsGYPtvok539URVJQSIYBkv1z5ihwW7GNVT+qPt9ABXzkiQIZq2h5W
XPcaRcUN+i/oiM5uHbtlLSC0b8+WDGSci0xsm3VqUSNrd0fPZCdeVAmZqr6D+JsY
TkkKSNqiFOvPUi+HhN9/VR6W80H0i/PU0rlGm4/H0k3GvM85l523Fi/YQOJAIIxN
QpbUIGm9tK/a/UJt3Z2YRKaDxlomxpXVAgMBAAGjgbUwgbIwCQYDVR0TBAIwADAd
BgNVHQ4EFgQU5xhcadLXNBoQYv7WK/JSoQglteQwHwYDVR0jBBgwFoAUZUfh8QKd
heqMmnf9G9fWp7YIHdUwLAYIKwYBBQUHAQEEIDAeMBwGCCsGAQUFBzABhhBodHRw
Oi8vMTAuMC4yLjE1MA4GA1UdDwEB/wQEAwID6DAWBgNVHSUBAf8EDDAKBggrBgEF
BQcDATAPBgNVHREECDAGhwQKAAIPMA0GCSqGSIb3DQEBCwUAA4ICAQCnC0wxkmxN
1c6f0a5BItuG7ZJfxIT1HBsCFd1AoL7n5lEDeTw0ZwOg0gk2X9CHhgxxVqhvAChV
+UfrnfvyCh4w1m9OQaYfC9LKjMyCk/WMBoIO3D2apmQGLN4bNwcm61vXKI2te5I4
4Ifj3WpwdNfJRSPk46oEt6hLTyHn7gmUJX1eDRJPhNj9PbgBp7hb9OqDDDmEoV9C
bWnrSRd4SlPAkdIMhxpnhVz8RZSdgArPDhOImoq+weTcu6bgII6+Rc9U1I4Hfidr
1lRe+ZUs5d9ipKIn6L5vr/CoyRwAOnoAwcLQBRXvqwgfu9pmbJxv9qkMTiVOPqOy
WdkHwDunZEU12Sd02wSnfKqC4LoL1YFM8L+nQDAW5WGsxPF3qHK96s4ODHCFuq4S
nPEqaC3q+TFU1EslYo0CIy6B79Xanb2ONWUuGPPOPSOo9NX7K8z1G63IFBJwcQrO
7QtAWAnUyEAUlz4T/r68tudGvQlDnao8S4IyWqIx1sXtuvuPX9Rqi7dBkiAE9osp
TyKLZJPiiMut6mvhrd5agPDjZQa92OF9nciJKltjUmfQhgJlBqelEjtK1GKUMcNE
lKPV5aGdZBlPlWtbD7Go3W5geEdk1NeAnS+KzwACLM5sXb4Vh/sMOISdYNjOLXmy
uXzBk5+9+jvOYa2jY0ILat2qEl0njFYHlg==
-----END CERTIFICATE-----
